target datalayout = "e-m:e-p270:32:32-p271:32:32-p272:64:64-i64:64-i128:128-f80:128-n8:16:32:64-S128"
target triple = "x86_64-pc-linux-gnu"

%struct.redisServer = type { i32, i64, ptr, ptr, ptr, i32, i32, i32, i32, i32, ptr, ptr, ptr, ptr, ptr, i32, i32, i32, i32, i64, i32, i32, i32, i32, ptr, i32, i32, [41 x i8], i32, i64, i32, i32, i32, ptr, ptr, i32, i32, i64, ptr, ptr, ptr, ptr, [2 x i32], i32, i32, i32, i32, i32, i32, [16 x ptr], i32, ptr, ptr, i32, [8 x %struct.connListener], i32, %struct.connListener, ptr, ptr, ptr, ptr, ptr, ptr, ptr, ptr, ptr, ptr, i32, ptr, i32, ptr, [3 x %struct.pause_event], [256 x i8], ptr, i64, i32, i32, [128 x i32], i32, i32, i64, i32, i32, i32, i32, i32, i64, i64, i64, i64, i64, i64, i64, i64, i64, i64, double, i64, i64, i64, i64, i64, i64, i64, i64, i64, i64, i64, i64, i64, i64, i64, i64, i64, i64, i64, i64, i64, double, i64, i64, i64, i64, i64, ptr, i64, i64, i64, %struct.malloc_stats, i64, i64, i64, i64, i64, i64, i64, i64, i64, i64, i64, i64, double, [4 x i64], i64, i64, i64, i64, [128 x i64], [128 x i64], i64, i64, [7 x %struct.anon], i64, i64, i64, i64, i64, i64, [4 x %struct.durationStats], i32, i32, i32, i32, i32, i32, i32, i32, i32, i32, i32, i32, i64, i32, i32, i32, i32, i64, i64, i32, i32, i32, i32, i32, ptr, [3 x %struct.clientBufferLimitsConfig], i32, i32, i32, ptr, i32, i32, i32, i32, i32, i32, ptr, ptr, i32, i32, i64, i64, i64, i64, i64, i32, i32, ptr, i32, i32, i64, i64, i64, i64, i64, i32, i32, i64, i32, i32, i32, i32, i32, i32, i32, i32, ptr, i32, i64, i64, i64, i64, i32, ptr, i32, ptr, i32, i32, i32, i64, i64, i64, i64, i32, i32, i32, i32, i32, i32, ptr, i32, i32, ptr, i32, i32, i32, [2 x i32], i32, %struct.redisOpArray, i32, ptr, i32, ptr, i32, i32, i32, i32, i32, i32, i32, [41 x i8], [41 x i8], i64, i64, i64, i64, i32, i32, ptr, i64, i64, %struct.replDataBuf, i64, i64, i32, i32, i32, i32, i32, i32, i32, i32, i32, i64, ptr, i64, ptr, ptr, ptr, i32, i32, ptr, ptr, i32, i32, i32, i64, i64, i64, i64, ptr, ptr, i32, ptr, i64, i32, i32, i32, i64, i32, i32, i32, i32, ptr, i32, i32, [41 x i8], i64, i32, ptr, i32, i32, i64, i64, i32, i32, i32, i32, i32, i64, [3 x i32], i32, i32, i32, [10 x i32], ptr, ptr, i32, i64, ptr, ptr, i32, i32, i32, i32, i64, i64, i64, i64, i64, i64, i64, i64, i64, i64, i32, i32, i64, i64, i32, i64, i64, i64, i64, i64, ptr, ptr, i32, ptr, i32, i32, i32, i32, i64, i64, ptr, ptr, i32, i32, i32, i32, i32, ptr, ptr, ptr, i32, i32, i32, i32, i32, i32, i32, i64, i32, i32, i64, i32, i32, i32, i32, i32, i32, i32, i64, ptr, ptr, i64, ptr, i32, %struct.aclInfo, i32, i64, i32, i32, i32, %struct.redisTLSContextConfig, ptr, ptr, ptr, ptr, ptr, i64, i32, ptr, i32, i32, i32, i64, i32, ptr }
%struct.connListener = type { [16 x i32], i32, ptr, i32, i32, ptr, ptr }
%struct.pause_event = type { i32, i64 }
%struct.malloc_stats = type { i64, i64, i64, i64, i64, i64, i64, i64, i64, i64, i64 }
%struct.anon = type { i64, i64, [16 x i64], i32 }
%struct.durationStats = type { i64, i64, i64 }
%struct.clientBufferLimitsConfig = type { i64, i64, i64 }
%struct.redisOpArray = type { ptr, i32, i32 }
%struct.replDataBuf = type { ptr, i64, i64, i64, i64 }
%struct.aclInfo = type { i64, i64, i64, i64 }
%struct.redisTLSContextConfig = type { ptr, ptr, ptr, ptr, ptr, ptr, ptr, ptr, ptr, ptr, ptr, ptr, i32, i32, i32, i32 }
%struct.raxIterator = type { i32, ptr, ptr, ptr, i64, i64, [128 x i8], ptr, %struct.raxStack, ptr }
%struct.raxStack = type { ptr, i64, i64, [32 x ptr], i32 }
%struct.client = type { i64, i64, ptr, i8, i8, i8, i8, i32, ptr, ptr, ptr, ptr, ptr, i64, i64, i32, ptr, i32, i32, ptr, i64, ptr, ptr, ptr, ptr, ptr, i32, i32, i64, ptr, i64, ptr, i64, i64, i64, i32, ptr, i64, i64, i32, i32, i32, i32, i64, i64, ptr, i64, i64, i64, i64, i64, i64, i64, i64, [41 x i8], i32, ptr, i32, i32, i64, %struct.multiState, %struct.blockingState, i64, ptr, ptr, ptr, ptr, ptr, ptr, ptr, ptr, ptr, ptr, ptr, ptr, ptr, ptr, i64, ptr, i64, i32, ptr, ptr, ptr, i64, %struct.listNode, i64, i64, i32, i64, ptr }
%struct.multiState = type { ptr, i32, i32, i32, i64, i32 }
%struct.blockingState = type { i32, i64, i32, ptr, i32, i32, i64, ptr, ptr, i64 }
%struct.listNode = type { ptr, ptr, ptr }
%struct.bcastState = type { ptr, ptr }
%struct.sdshdr8 = type { i8, i8, i8, [0 x i8] }
%struct.sdshdr16 = type <{ i16, i16, i8, [0 x i8] }>
%struct.sdshdr32 = type <{ i32, i32, i8, [0 x i8] }>
%struct.sdshdr64 = type <{ i64, i64, i8, [0 x i8] }>

@TrackingTable = dso_local global ptr null, align 8
@PrefixTable = dso_local global ptr null, align 8
@.str = private unnamed_addr constant [2 x i8] c"^\00", align 1
@server = external global %struct.redisServer, align 8

; Function Attrs: inlinehint nounwind uwtable
define internal i64 @sdslen(ptr noundef %0) #5 {
  %2 = alloca i64, align 8
  %3 = alloca ptr, align 8
  %4 = alloca i8, align 1
  %5 = alloca i32, align 4
  store ptr %0, ptr %3, align 8, !tbaa !71
  call void @llvm.lifetime.start.p0(i64 1, ptr %4) #10
  %6 = load ptr, ptr %3, align 8, !tbaa !71
  %7 = getelementptr inbounds i8, ptr %6, i64 -1
  %8 = load i8, ptr %7, align 1, !tbaa !75
  store i8 %8, ptr %4, align 1, !tbaa !75
  %9 = load i8, ptr %4, align 1, !tbaa !75
  %10 = zext i8 %9 to i32
  %11 = and i32 %10, 7
  switch i32 %11, label %40 [
    i32 0, label %12
    i32 1, label %17
    i32 2, label %23
    i32 3, label %29
    i32 4, label %35
  ]

12:                                               ; preds = %1
  %13 = load i8, ptr %4, align 1, !tbaa !75
  %14 = zext i8 %13 to i32
  %15 = ashr i32 %14, 3
  %16 = sext i32 %15 to i64
  store i64 %16, ptr %2, align 8
  store i32 1, ptr %5, align 4
  br label %41

17:                                               ; preds = %1
  %18 = load ptr, ptr %3, align 8, !tbaa !71
  %19 = getelementptr inbounds i8, ptr %18, i64 -3
  %20 = getelementptr inbounds nuw %struct.sdshdr8, ptr %19, i32 0, i32 0
  %21 = load i8, ptr %20, align 1, !tbaa !75
  %22 = zext i8 %21 to i64
  store i64 %22, ptr %2, align 8
  store i32 1, ptr %5, align 4
  br label %41

23:                                               ; preds = %1
  %24 = load ptr, ptr %3, align 8, !tbaa !71
  %25 = getelementptr inbounds i8, ptr %24, i64 -5
  %26 = getelementptr inbounds nuw %struct.sdshdr16, ptr %25, i32 0, i32 0
  %27 = load i16, ptr %26, align 1, !tbaa !76
  %28 = zext i16 %27 to i64
  store i64 %28, ptr %2, align 8
  store i32 1, ptr %5, align 4
  br label %41

29:                                               ; preds = %1
  %30 = load ptr, ptr %3, align 8, !tbaa !71
  %31 = getelementptr inbounds i8, ptr %30, i64 -9
  %32 = getelementptr inbounds nuw %struct.sdshdr32, ptr %31, i32 0, i32 0
  %33 = load i32, ptr %32, align 1, !tbaa !37
  %34 = zext i32 %33 to i64
  store i64 %34, ptr %2, align 8
  store i32 1, ptr %5, align 4
  br label %41

35:                                               ; preds = %1
  %36 = load ptr, ptr %3, align 8, !tbaa !71
  %37 = getelementptr inbounds i8, ptr %36, i64 -17
  %38 = getelementptr inbounds nuw %struct.sdshdr64, ptr %37, i32 0, i32 0
  %39 = load i64, ptr %38, align 1, !tbaa !67
  store i64 %39, ptr %2, align 8
  store i32 1, ptr %5, align 4
  br label %41

40:                                               ; preds = %1
  store i64 0, ptr %2, align 8
  store i32 1, ptr %5, align 4
  br label %41

41:                                               ; preds = %40, %35, %29, %23, %17, %12
  call void @llvm.lifetime.end.p0(i64 1, ptr %4) #10
  %42 = load i64, ptr %2, align 8
  ret i64 %42
}

; Function Attrs: nounwind uwtable
define dso_local void @trackingBroadcastInvalidationMessages() #0 {
  %1 = alloca %struct.raxIterator, align 8
  %2 = alloca %struct.raxIterator, align 8
  %3 = alloca i32, align 4
  %4 = alloca ptr, align 8
  %5 = alloca ptr, align 8
  %6 = alloca ptr, align 8
  %7 = alloca ptr, align 8
  call void @llvm.lifetime.start.p0(i64 480, ptr %1) #10
  call void @llvm.lifetime.start.p0(i64 480, ptr %2) #10
  %8 = load ptr, ptr @TrackingTable, align 8, !tbaa !31
  %9 = icmp eq ptr %8, null
  br i1 %9, label %13, label %10

10:                                               ; preds = %0
  %11 = load i32, ptr getelementptr inbounds nuw (%struct.redisServer, ptr @server, i32 0, i32 346), align 8, !tbaa !46
  %12 = icmp ne i32 %11, 0
  br i1 %12, label %14, label %13

13:                                               ; preds = %10, %0
  store i32 1, ptr %3, align 4
  br label %79

14:                                               ; preds = %10
  %15 = load ptr, ptr @PrefixTable, align 8, !tbaa !31
  call void @raxStart(ptr noundef %1, ptr noundef %15)
  %16 = call i32 @raxSeek(ptr noundef %1, ptr noundef @.str, ptr noundef null, i64 noundef 0)
  br label %17

17:                                               ; preds = %71, %14
  %18 = call i32 @raxNext(ptr noundef %1)
  %19 = icmp ne i32 %18, 0
  br i1 %19, label %20, label %78

20:                                               ; preds = %17
  call void @llvm.lifetime.start.p0(i64 8, ptr %4) #10
  %21 = getelementptr inbounds nuw %struct.raxIterator, ptr %1, i32 0, i32 3
  %22 = load ptr, ptr %21, align 8, !tbaa !105
  store ptr %22, ptr %4, align 8, !tbaa !39
  %23 = load ptr, ptr %4, align 8, !tbaa !39
  %24 = getelementptr inbounds nuw %struct.bcastState, ptr %23, i32 0, i32 0
  %25 = load ptr, ptr %24, align 8, !tbaa !43
  %26 = call i64 @raxSize(ptr noundef %25)
  %27 = icmp ne i64 %26, 0
  br i1 %27, label %28, label %71

28:                                               ; preds = %20
  call void @llvm.lifetime.start.p0(i64 8, ptr %5) #10
  %29 = load ptr, ptr %4, align 8, !tbaa !39
  %30 = getelementptr inbounds nuw %struct.bcastState, ptr %29, i32 0, i32 0
  %31 = load ptr, ptr %30, align 8, !tbaa !43
  %32 = call ptr @trackingBuildBroadcastReply(ptr noundef null, ptr noundef %31)
  store ptr %32, ptr %5, align 8, !tbaa !71
  %33 = load ptr, ptr %4, align 8, !tbaa !39
  %34 = getelementptr inbounds nuw %struct.bcastState, ptr %33, i32 0, i32 1
  %35 = load ptr, ptr %34, align 8, !tbaa !41
  call void @raxStart(ptr noundef %2, ptr noundef %35)
  %36 = call i32 @raxSeek(ptr noundef %2, ptr noundef @.str, ptr noundef null, i64 noundef 0)
  br label %37

37:                                               ; preds = %68, %28
  %38 = call i32 @raxNext(ptr noundef %2)
  %39 = icmp ne i32 %38, 0
  br i1 %39, label %40, label %69

40:                                               ; preds = %37
  call void @llvm.lifetime.start.p0(i64 8, ptr %6) #10
  %41 = getelementptr inbounds nuw %struct.raxIterator, ptr %2, i32 0, i32 2
  %42 = load ptr, ptr %41, align 8, !tbaa !32
  call void @llvm.memcpy.p0.p0.i64(ptr align 8 %6, ptr align 1 %42, i64 8, i1 false)
  %43 = load ptr, ptr %6, align 8, !tbaa !5
  %44 = getelementptr inbounds nuw %struct.client, ptr %43, i32 0, i32 1
  %45 = load i64, ptr %44, align 8, !tbaa !10
  %46 = and i64 %45, 137438953472
  %47 = icmp ne i64 %46, 0
  br i1 %47, label %48, label %63

48:                                               ; preds = %40
  call void @llvm.lifetime.start.p0(i64 8, ptr %7) #10
  %49 = load ptr, ptr %6, align 8, !tbaa !5
  %50 = load ptr, ptr %4, align 8, !tbaa !39
  %51 = getelementptr inbounds nuw %struct.bcastState, ptr %50, i32 0, i32 0
  %52 = load ptr, ptr %51, align 8, !tbaa !43
  %53 = call ptr @trackingBuildBroadcastReply(ptr noundef %49, ptr noundef %52)
  store ptr %53, ptr %7, align 8, !tbaa !71
  %54 = load ptr, ptr %7, align 8, !tbaa !71
  %55 = icmp ne ptr %54, null
  br i1 %55, label %56, label %62

56:                                               ; preds = %48
  %57 = load ptr, ptr %6, align 8, !tbaa !5
  %58 = load ptr, ptr %7, align 8, !tbaa !71
  %59 = load ptr, ptr %7, align 8, !tbaa !71
  %60 = call i64 @sdslen(ptr noundef %59)
  call void @sendTrackingMessage(ptr noundef %57, ptr noundef %58, i64 noundef %60, i32 noundef 1)
  %61 = load ptr, ptr %7, align 8, !tbaa !71
  call void @sdsfree(ptr noundef %61)
  br label %62

62:                                               ; preds = %56, %48
  call void @llvm.lifetime.end.p0(i64 8, ptr %7) #10
  br label %68

63:                                               ; preds = %40
  %64 = load ptr, ptr %6, align 8, !tbaa !5
  %65 = load ptr, ptr %5, align 8, !tbaa !71
  %66 = load ptr, ptr %5, align 8, !tbaa !71
  %67 = call i64 @sdslen(ptr noundef %66)
  call void @sendTrackingMessage(ptr noundef %64, ptr noundef %65, i64 noundef %67, i32 noundef 1)
  br label %68

68:                                               ; preds = %63, %62
  call void @llvm.lifetime.end.p0(i64 8, ptr %6) #10
  br label %37, !llvm.loop !121

69:                                               ; preds = %37
  call void @raxStop(ptr noundef %2)
  %70 = load ptr, ptr %5, align 8, !tbaa !71
  call void @sdsfree(ptr noundef %70)
  call void @llvm.lifetime.end.p0(i64 8, ptr %5) #10
  br label %71

71:                                               ; preds = %69, %20
  %72 = load ptr, ptr %4, align 8, !tbaa !39
  %73 = getelementptr inbounds nuw %struct.bcastState, ptr %72, i32 0, i32 0
  %74 = load ptr, ptr %73, align 8, !tbaa !43
  call void @raxFree(ptr noundef %74)
  %75 = call ptr @raxNew()
  %76 = load ptr, ptr %4, align 8, !tbaa !39
  %77 = getelementptr inbounds nuw %struct.bcastState, ptr %76, i32 0, i32 0
  store ptr %75, ptr %77, align 8, !tbaa !43
  call void @llvm.lifetime.end.p0(i64 8, ptr %4) #10
  br label %17, !llvm.loop !122

78:                                               ; preds = %17
  call void @raxStop(ptr noundef %1)
  store i32 0, ptr %3, align 4
  br label %79

79:                                               ; preds = %78, %13
  call void @llvm.lifetime.end.p0(i64 480, ptr %2) #10
  call void @llvm.lifetime.end.p0(i64 480, ptr %1) #10
  %80 = load i32, ptr %3, align 4
  switch i32 %80, label %82 [
    i32 0, label %81
    i32 1, label %81
  ]

81:                                               ; preds = %79, %79
  ret void

82:                                               ; preds = %79
  unreachable
}