; Function Attrs: nounwind uwtable
define dso_local void @trackingBroadcastInvalidationMessages() local_unnamed_addr #0 {
  %1 = alloca %struct.raxIterator, align 8
  %2 = alloca %struct.raxIterator, align 8
  call void @llvm.lifetime.start.p0(i64 480, ptr nonnull %1) #9
  call void @llvm.lifetime.start.p0(i64 480, ptr nonnull %2) #9
  %3 = load ptr, ptr @TrackingTable, align 8, !tbaa !31
  %4 = icmp ne ptr %3, null
  %5 = load i32, ptr getelementptr inbounds nuw (i8, ptr @server, i64 7648), align 8
  %6 = icmp ne i32 %5, 0
  %or.cond = select i1 %4, i1 %6, i1 false
  br i1 %or.cond, label %7, label %84

7:                                                ; preds = %0
  %8 = load ptr, ptr @PrefixTable, align 8, !tbaa !31
  call void @raxStart(ptr noundef nonnull %1, ptr noundef %8) #9
  %9 = call i32 @raxSeek(ptr noundef nonnull %1, ptr noundef nonnull @.str, ptr noundef null, i64 noundef 0) #9
  %10 = call i32 @raxNext(ptr noundef nonnull %1) #9
  %.not25 = icmp eq i32 %10, 0
  br i1 %.not25, label %._crit_edge28, label %.lr.ph27

.lr.ph27:                                         ; preds = %7
  %11 = getelementptr inbounds nuw i8, ptr %1, i64 24
  %12 = getelementptr inbounds nuw i8, ptr %2, i64 16
  br label %13

13:                                               ; preds = %.lr.ph27, %80
  %14 = load ptr, ptr %11, align 8, !tbaa !100
  %15 = load ptr, ptr %14, align 8, !tbaa !41
  %16 = call i64 @raxSize(ptr noundef %15) #9
  %.not18 = icmp eq i64 %16, 0
  br i1 %.not18, label %80, label %17

17:                                               ; preds = %13
  %18 = load ptr, ptr %14, align 8, !tbaa !41
  %19 = call ptr @trackingBuildBroadcastReply(ptr noundef null, ptr noundef %18)
  %20 = getelementptr inbounds nuw i8, ptr %14, i64 8
  %21 = load ptr, ptr %20, align 8, !tbaa !39
  call void @raxStart(ptr noundef nonnull %2, ptr noundef %21) #9
  %22 = call i32 @raxSeek(ptr noundef nonnull %2, ptr noundef nonnull @.str, ptr noundef null, i64 noundef 0) #9
  %23 = call i32 @raxNext(ptr noundef nonnull %2) #9
  %.not1924 = icmp eq i32 %23, 0
  br i1 %.not1924, label %._crit_edge, label %.lr.ph

.lr.ph:                                           ; preds = %17
  %24 = getelementptr inbounds i8, ptr %19, i64 -1
  %25 = getelementptr inbounds i8, ptr %19, i64 -17
  %26 = getelementptr inbounds i8, ptr %19, i64 -9
  %27 = getelementptr inbounds i8, ptr %19, i64 -5
  %28 = getelementptr inbounds i8, ptr %19, i64 -3
  br label %29

29:                                               ; preds = %.lr.ph, %78
  %30 = load ptr, ptr %12, align 8, !tbaa !32
  %.0.copyload = load ptr, ptr %30, align 1
  %31 = getelementptr inbounds nuw i8, ptr %.0.copyload, i64 8
  %32 = load i64, ptr %31, align 8, !tbaa !10
  %33 = and i64 %32, 137438953472
  %.not20 = icmp eq i64 %33, 0
  br i1 %.not20, label %60, label %34

34:                                               ; preds = %29
  %35 = load ptr, ptr %14, align 8, !tbaa !41
  %36 = call ptr @trackingBuildBroadcastReply(ptr noundef nonnull %.0.copyload, ptr noundef %35)
  %.not21 = icmp eq ptr %36, null
  br i1 %.not21, label %78, label %37

37:                                               ; preds = %34
  %38 = getelementptr inbounds i8, ptr %36, i64 -1
  %39 = load i8, ptr %38, align 1, !tbaa !67
  %40 = zext i8 %39 to i32
  %41 = and i32 %40, 7
  switch i32 %41, label %sdslen.exit [
    i32 0, label %42
    i32 1, label %45
    i32 2, label %49
    i32 3, label %53
    i32 4, label %57
  ]

42:                                               ; preds = %37
  %43 = lshr i32 %40, 3
  %44 = zext nneg i32 %43 to i64
  br label %sdslen.exit

45:                                               ; preds = %37
  %46 = getelementptr inbounds i8, ptr %36, i64 -3
  %47 = load i8, ptr %46, align 1, !tbaa !67
  %48 = zext i8 %47 to i64
  br label %sdslen.exit

49:                                               ; preds = %37
  %50 = getelementptr inbounds i8, ptr %36, i64 -5
  %51 = load i16, ptr %50, align 1, !tbaa !68
  %52 = zext i16 %51 to i64
  br label %sdslen.exit

53:                                               ; preds = %37
  %54 = getelementptr inbounds i8, ptr %36, i64 -9
  %55 = load i32, ptr %54, align 1, !tbaa !70
  %56 = zext i32 %55 to i64
  br label %sdslen.exit

57:                                               ; preds = %37
  %58 = getelementptr inbounds i8, ptr %36, i64 -17
  %59 = load i64, ptr %58, align 1, !tbaa !71
  br label %sdslen.exit

sdslen.exit:                                      ; preds = %37, %42, %45, %49, %53, %57
  %.0.i = phi i64 [ %59, %57 ], [ %56, %53 ], [ %52, %49 ], [ %48, %45 ], [ %44, %42 ], [ 0, %37 ]
  call void @sendTrackingMessage(ptr noundef nonnull %.0.copyload, ptr noundef nonnull %36, i64 noundef %.0.i, i32 noundef 1)
  call void @sdsfree(ptr noundef nonnull %36) #9
  br label %78

60:                                               ; preds = %29
  %61 = load i8, ptr %24, align 1, !tbaa !67
  %62 = zext i8 %61 to i32
  %63 = and i32 %62, 7
  switch i32 %63, label %sdslen.exit23 [
    i32 0, label %64
    i32 1, label %67
    i32 2, label %70
    i32 3, label %73
    i32 4, label %76
  ]

64:                                               ; preds = %60
  %65 = lshr i32 %62, 3
  %66 = zext nneg i32 %65 to i64
  br label %sdslen.exit23

67:                                               ; preds = %60
  %68 = load i8, ptr %28, align 1, !tbaa !67
  %69 = zext i8 %68 to i64
  br label %sdslen.exit23

70:                                               ; preds = %60
  %71 = load i16, ptr %27, align 1, !tbaa !68
  %72 = zext i16 %71 to i64
  br label %sdslen.exit23

73:                                               ; preds = %60
  %74 = load i32, ptr %26, align 1, !tbaa !70
  %75 = zext i32 %74 to i64
  br label %sdslen.exit23

76:                                               ; preds = %60
  %77 = load i64, ptr %25, align 1, !tbaa !71
  br label %sdslen.exit23

sdslen.exit23:                                    ; preds = %60, %64, %67, %70, %73, %76
  %.0.i22 = phi i64 [ %77, %76 ], [ %75, %73 ], [ %72, %70 ], [ %69, %67 ], [ %66, %64 ], [ 0, %60 ]
  call void @sendTrackingMessage(ptr noundef nonnull %.0.copyload, ptr noundef nonnull %19, i64 noundef %.0.i22, i32 noundef 1)
  br label %78

78:                                               ; preds = %34, %sdslen.exit, %sdslen.exit23
  %79 = call i32 @raxNext(ptr noundef nonnull %2) #9
  %.not19 = icmp eq i32 %79, 0
  br i1 %.not19, label %._crit_edge, label %29, !llvm.loop !114

._crit_edge:                                      ; preds = %78, %17
  call void @raxStop(ptr noundef nonnull %2) #9
  call void @sdsfree(ptr noundef %19) #9
  br label %80

80:                                               ; preds = %._crit_edge, %13
  %81 = load ptr, ptr %14, align 8, !tbaa !41
  call void @raxFree(ptr noundef %81) #9
  %82 = call ptr @raxNew() #9
  store ptr %82, ptr %14, align 8, !tbaa !41
  %83 = call i32 @raxNext(ptr noundef nonnull %1) #9
  %.not = icmp eq i32 %83, 0
  br i1 %.not, label %._crit_edge28, label %13, !llvm.loop !115

._crit_edge28:                                    ; preds = %80, %7
  call void @raxStop(ptr noundef nonnull %1) #9
  br label %84

84:                                               ; preds = %0, %._crit_edge28
  call void @llvm.lifetime.end.p0(i64 480, ptr nonnull %2) #9
  call void @llvm.lifetime.end.p0(i64 480, ptr nonnull %1) #9
  ret void
}